; Function Attrs: mustprogress nounwind uwtable
define void @_ZN13sentencepiece7unigram5ModelD2Ev(ptr noundef nonnull align 8 dereferenceable(176) initializes((0, 8)) %0) unnamed_addr #4 align 2 {
  store ptr getelementptr inbounds nuw inrange(-16, 200) (i8, ptr @_ZTVN13sentencepiece7unigram5ModelE, i64 16), ptr %0, align 8, !tbaa !3
  %2 = getelementptr inbounds nuw i8, ptr %0, i64 160
  %3 = load ptr, ptr %2, align 8, !tbaa !201
  %.not.i = icmp eq ptr %3, null
  br i1 %.not.i, label %_ZNSt10unique_ptrIN5Darts15DoubleArrayImplIvvivEESt14default_deleteIS2_EED2Ev.exit, label %_ZNKSt14default_deleteIN5Darts15DoubleArrayImplIvvivEEEclEPS2_.exit.i

_ZNKSt14default_deleteIN5Darts15DoubleArrayImplIvvivEEEclEPS2_.exit.i: ; preds = %1
  %4 = load ptr, ptr %3, align 8, !tbaa !3
  %5 = getelementptr inbounds nuw i8, ptr %4, i64 8
  %6 = load ptr, ptr %5, align 8
  tail call void %6(ptr noundef nonnull align 8 dereferenceable(32) %3) #29
  br label %_ZNSt10unique_ptrIN5Darts15DoubleArrayImplIvvivEESt14default_deleteIS2_EED2Ev.exit

_ZNSt10unique_ptrIN5Darts15DoubleArrayImplIvvivEESt14default_deleteIS2_EED2Ev.exit: ; preds = %1, %_ZNKSt14default_deleteIN5Darts15DoubleArrayImplIvvivEEEclEPS2_.exit.i
  store ptr null, ptr %2, align 8, !tbaa !201
  tail call void @_ZN13sentencepiece14ModelInterfaceD2Ev(ptr noundef nonnull align 8 dereferenceable(152) %0) #29
  ret void
}